target datalayout = "e-m:e-p270:32:32-p271:32:32-p272:64:64-i64:64-i128:128-f80:128-n8:16:32:64-S128"
target triple = "x86_64-pc-linux-gnu"

%struct._packet_info = type { ptr, ptr, i32, i32, %struct.nstime_t, %struct.nstime_t, %struct.nstime_t, i8, ptr, ptr, ptr, ptr, %struct._address, %struct._address, %struct._address, %struct._address, %struct._address, %struct._address, i32, ptr, i8, [3 x i8], %struct.anon, i32, i32, i32, i32, ptr, i8, ptr, ptr, i16, i16, i32, i32, i16, i32, i32, ptr, ptr, ptr, i8, i8, i16, i16, i16, i32, i16, i16, ptr, ptr, ptr, ptr, ptr, i32, i32 }
%struct.nstime_t = type { i64, i32 }
%struct._address = type { i32, i32, ptr, ptr }
%struct.anon = type { i8, [3 x i8] }
%struct._frame_data = type <{ i32, i32, i32, i32, i32, [4 x i8], i64, ptr, ptr, ptr, i8, i16, [5 x i8], %struct.nstime_t, %struct.nstime_t, i32, i32 }>

@hf_msmms_command_prefix1 = internal global i32 0, align 4
@hf_msmms_command_prefix2 = internal global i32 0, align 4
@hf_msmms_command_client_transport_info = internal global i32 0, align 4
@msmms_handle = internal global ptr null, align 8
@.str.187 = private unnamed_addr constant [16 x i8] c"Transport: (%s)\00", align 1
@.str.188 = private unnamed_addr constant [6 x i8] c" (%s)\00", align 1
@.str.189 = private unnamed_addr constant [29 x i8] c"%*c%*c%u.%u.%u.%u%*c%3s%*c%u\00", align 1
@.str.190 = private unnamed_addr constant [4 x i8] c"UDP\00", align 1
@.str.191 = private unnamed_addr constant [4 x i8] c"TCP\00", align 1

; Function Attrs: inlinehint nounwind null_pointer_is_valid sspstrong uwtable
define internal void @clear_address(ptr noundef %0) #3 {
  %2 = alloca ptr, align 8
  store ptr %0, ptr %2, align 8
  %3 = load ptr, ptr %2, align 8
  %4 = getelementptr inbounds nuw %struct._address, ptr %3, i32 0, i32 0
  store i32 0, ptr %4, align 8
  %5 = load ptr, ptr %2, align 8
  %6 = getelementptr inbounds nuw %struct._address, ptr %5, i32 0, i32 1
  store i32 0, ptr %6, align 4
  %7 = load ptr, ptr %2, align 8
  %8 = getelementptr inbounds nuw %struct._address, ptr %7, i32 0, i32 2
  store ptr null, ptr %8, align 8
  %9 = load ptr, ptr %2, align 8
  %10 = getelementptr inbounds nuw %struct._address, ptr %9, i32 0, i32 3
  store ptr null, ptr %10, align 8
  ret void
}

; Function Attrs: null_pointer_is_valid sspstrong uwtable
define internal void @msmms_data_add_address(ptr noundef %0, ptr noundef %1, i32 noundef %2, i32 noundef %3) #0 {
  %5 = alloca ptr, align 8
  %6 = alloca ptr, align 8
  %7 = alloca i32, align 4
  %8 = alloca i32, align 4
  %9 = alloca %struct._address, align 8
  %10 = alloca ptr, align 8
  %11 = alloca i32, align 4
  store ptr %0, ptr %5, align 8
  store ptr %1, ptr %6, align 8
  store i32 %2, ptr %7, align 4
  store i32 %3, ptr %8, align 4
  call void @llvm.lifetime.start.p0(i64 24, ptr %9) #7
  call void @llvm.lifetime.start.p0(i64 8, ptr %10) #7
  %12 = load ptr, ptr %5, align 8
  %13 = getelementptr inbounds nuw %struct._packet_info, ptr %12, i32 0, i32 8
  %14 = load ptr, ptr %13, align 8
  %15 = getelementptr inbounds nuw %struct._frame_data, ptr %14, i32 0, i32 11
  %16 = load i16, ptr %15, align 1
  %17 = lshr i16 %16, 3
  %18 = and i16 %17, 1
  %19 = zext i16 %18 to i32
  %20 = icmp ne i32 %19, 0
  br i1 %20, label %21, label %22

21:                                               ; preds = %4
  store i32 1, ptr %11, align 4
  br label %43

22:                                               ; preds = %4
  call void @clear_address(ptr noundef %9)
  %23 = load ptr, ptr %5, align 8
  %24 = getelementptr inbounds nuw %struct._packet_info, ptr %23, i32 0, i32 3
  %25 = load i32, ptr %24, align 4
  %26 = load ptr, ptr %6, align 8
  %27 = load i32, ptr %7, align 4
  %28 = load i32, ptr %8, align 4
  %29 = call ptr @find_conversation(i32 noundef %25, ptr noundef %26, ptr noundef %9, i32 noundef %27, i32 noundef %28, i32 noundef 0, i32 noundef 196608)
  store ptr %29, ptr %10, align 8
  %30 = load ptr, ptr %10, align 8
  %31 = icmp ne ptr %30, null
  br i1 %31, label %40, label %32

32:                                               ; preds = %22
  %33 = load ptr, ptr %5, align 8
  %34 = getelementptr inbounds nuw %struct._packet_info, ptr %33, i32 0, i32 3
  %35 = load i32, ptr %34, align 4
  %36 = load ptr, ptr %6, align 8
  %37 = load i32, ptr %7, align 4
  %38 = load i32, ptr %8, align 4
  %39 = call ptr @conversation_new(i32 noundef %35, ptr noundef %36, ptr noundef %9, i32 noundef %37, i32 noundef %38, i32 noundef 0, i32 noundef 3)
  store ptr %39, ptr %10, align 8
  br label %40

40:                                               ; preds = %32, %22
  %41 = load ptr, ptr %10, align 8
  %42 = load ptr, ptr @msmms_handle, align 8
  call void @conversation_set_dissector(ptr noundef %41, ptr noundef %42)
  store i32 0, ptr %11, align 4
  br label %43

43:                                               ; preds = %40, %21
  call void @llvm.lifetime.end.p0(i64 8, ptr %10) #7
  call void @llvm.lifetime.end.p0(i64 24, ptr %9) #7
  %44 = load i32, ptr %11, align 4
  switch i32 %44, label %46 [
    i32 0, label %45
    i32 1, label %45
  ]

45:                                               ; preds = %43, %43
  ret void

46:                                               ; preds = %43
  unreachable
}

; Function Attrs: null_pointer_is_valid sspstrong uwtable
define internal void @dissect_client_transport_info(ptr noundef %0, ptr noundef %1, ptr noundef %2, i32 noundef %3, i32 noundef %4) #0 {
  %6 = alloca ptr, align 8
  %7 = alloca ptr, align 8
  %8 = alloca ptr, align 8
  %9 = alloca i32, align 4
  %10 = alloca i32, align 4
  %11 = alloca ptr, align 8
  %12 = alloca [4 x i32], align 16
  %13 = alloca [4 x i8], align 1
  %14 = alloca i32, align 4
  %15 = alloca i32, align 4
  %16 = alloca i32, align 4
  %17 = alloca [4 x i8], align 1
  %18 = alloca %struct._address, align 8
  store ptr %0, ptr %6, align 8
  store ptr %1, ptr %7, align 8
  store ptr %2, ptr %8, align 8
  store i32 %3, ptr %9, align 4
  store i32 %4, ptr %10, align 4
  call void @llvm.lifetime.start.p0(i64 8, ptr %11) #7
  call void @llvm.lifetime.start.p0(i64 16, ptr %12) #7
  call void @llvm.lifetime.start.p0(i64 4, ptr %13) #7
  call void @llvm.memset.p0.i64(ptr align 1 %13, i8 0, i64 4, i1 false)
  call void @llvm.lifetime.start.p0(i64 4, ptr %14) #7
  call void @llvm.lifetime.start.p0(i64 4, ptr %15) #7
  %19 = load ptr, ptr %8, align 8
  %20 = load i32, ptr @hf_msmms_command_prefix1, align 4
  %21 = load ptr, ptr %6, align 8
  %22 = load i32, ptr %9, align 4
  %23 = call ptr @proto_tree_add_item(ptr noundef %19, i32 noundef %20, ptr noundef %21, i32 noundef %22, i32 noundef 4, i32 noundef -2147483648)
  %24 = load i32, ptr %9, align 4
  %25 = add i32 %24, 4
  store i32 %25, ptr %9, align 4
  %26 = load ptr, ptr %8, align 8
  %27 = load i32, ptr @hf_msmms_command_prefix2, align 4
  %28 = load ptr, ptr %6, align 8
  %29 = load i32, ptr %9, align 4
  %30 = call ptr @proto_tree_add_item(ptr noundef %26, i32 noundef %27, ptr noundef %28, i32 noundef %29, i32 noundef 4, i32 noundef -2147483648)
  %31 = load i32, ptr %9, align 4
  %32 = add i32 %31, 4
  store i32 %32, ptr %9, align 4
  %33 = load i32, ptr %9, align 4
  %34 = add i32 %33, 4
  store i32 %34, ptr %9, align 4
  %35 = load i32, ptr %9, align 4
  %36 = add i32 %35, 4
  store i32 %36, ptr %9, align 4
  %37 = load i32, ptr %9, align 4
  %38 = add i32 %37, 4
  store i32 %38, ptr %9, align 4
  %39 = load ptr, ptr %7, align 8
  %40 = getelementptr inbounds nuw %struct._packet_info, ptr %39, i32 0, i32 51
  %41 = load ptr, ptr %40, align 8
  %42 = load ptr, ptr %6, align 8
  %43 = load i32, ptr %9, align 4
  %44 = load i32, ptr %10, align 4
  %45 = sub i32 %44, 20
  %46 = call ptr @tvb_get_string_enc(ptr noundef %41, ptr noundef %42, i32 noundef %43, i32 noundef %45, i32 noundef -2147483644)
  store ptr %46, ptr %11, align 8
  %47 = load ptr, ptr %8, align 8
  %48 = load i32, ptr @hf_msmms_command_client_transport_info, align 4
  %49 = load ptr, ptr %6, align 8
  %50 = load i32, ptr %9, align 4
  %51 = load i32, ptr %10, align 4
  %52 = sub i32 %51, 20
  %53 = load ptr, ptr %11, align 8
  %54 = load ptr, ptr %11, align 8
  %55 = call ptr (ptr, i32, ptr, i32, i32, ptr, ptr, ...) @proto_tree_add_string_format(ptr noundef %47, i32 noundef %48, ptr noundef %49, i32 noundef %50, i32 noundef %52, ptr noundef %53, ptr noundef @.str.187, ptr noundef %54)
  %56 = load ptr, ptr %7, align 8
  %57 = getelementptr inbounds nuw %struct._packet_info, ptr %56, i32 0, i32 1
  %58 = load ptr, ptr %57, align 8
  %59 = load ptr, ptr %7, align 8
  %60 = getelementptr inbounds nuw %struct._packet_info, ptr %59, i32 0, i32 51
  %61 = load ptr, ptr %60, align 8
  %62 = load ptr, ptr %11, align 8
  %63 = call ptr @format_text_string(ptr noundef %61, ptr noundef %62)
  call void (ptr, i32, ptr, ...) @col_append_fstr(ptr noundef %58, i32 noundef 25, ptr noundef @.str.188, ptr noundef %63)
  %64 = load ptr, ptr %11, align 8
  %65 = getelementptr [4 x i32], ptr %12, i64 0, i64 0
  %66 = getelementptr [4 x i32], ptr %12, i64 0, i64 1
  %67 = getelementptr [4 x i32], ptr %12, i64 0, i64 2
  %68 = getelementptr [4 x i32], ptr %12, i64 0, i64 3
  %69 = getelementptr inbounds [4 x i8], ptr %13, i64 0, i64 0
  %70 = call i32 (ptr, ptr, ...) @__isoc99_sscanf(ptr noundef %64, ptr noundef @.str.189, ptr noundef %65, ptr noundef %66, ptr noundef %67, ptr noundef %68, ptr noundef %69, ptr noundef %14) #7
  store i32 %70, ptr %15, align 4
  %71 = load i32, ptr %15, align 4
  %72 = icmp eq i32 %71, 6
  br i1 %72, label %73, label %112

73:                                               ; preds = %5
  call void @llvm.lifetime.start.p0(i64 4, ptr %16) #7
  store i32 0, ptr %16, align 4
  %74 = getelementptr inbounds [4 x i8], ptr %13, i64 0, i64 0
  %75 = call i32 @strncmp(ptr noundef %74, ptr noundef @.str.190, i64 noundef 3) #8
  %76 = icmp eq i32 %75, 0
  br i1 %76, label %77, label %78

77:                                               ; preds = %73
  store i32 3, ptr %16, align 4
  br label %84

78:                                               ; preds = %73
  %79 = getelementptr inbounds [4 x i8], ptr %13, i64 0, i64 0
  %80 = call i32 @strncmp(ptr noundef %79, ptr noundef @.str.191, i64 noundef 3) #8
  %81 = icmp eq i32 %80, 0
  br i1 %81, label %82, label %83

82:                                               ; preds = %78
  store i32 2, ptr %16, align 4
  br label %83

83:                                               ; preds = %82, %78
  br label %84

84:                                               ; preds = %83, %77
  %85 = load i32, ptr %16, align 4
  %86 = icmp ne i32 %85, 0
  br i1 %86, label %87, label %111

87:                                               ; preds = %84
  call void @llvm.lifetime.start.p0(i64 4, ptr %17) #7
  call void @llvm.lifetime.start.p0(i64 24, ptr %18) #7
  %88 = getelementptr [4 x i32], ptr %12, i64 0, i64 0
  %89 = load i32, ptr %88, align 16
  %90 = trunc i32 %89 to i8
  %91 = getelementptr [4 x i8], ptr %17, i64 0, i64 0
  store i8 %90, ptr %91, align 1
  %92 = getelementptr [4 x i32], ptr %12, i64 0, i64 1
  %93 = load i32, ptr %92, align 4
  %94 = trunc i32 %93 to i8
  %95 = getelementptr [4 x i8], ptr %17, i64 0, i64 1
  store i8 %94, ptr %95, align 1
  %96 = getelementptr [4 x i32], ptr %12, i64 0, i64 2
  %97 = load i32, ptr %96, align 8
  %98 = trunc i32 %97 to i8
  %99 = getelementptr [4 x i8], ptr %17, i64 0, i64 2
  store i8 %98, ptr %99, align 1
  %100 = getelementptr [4 x i32], ptr %12, i64 0, i64 3
  %101 = load i32, ptr %100, align 4
  %102 = trunc i32 %101 to i8
  %103 = getelementptr [4 x i8], ptr %17, i64 0, i64 3
  store i8 %102, ptr %103, align 1
  %104 = getelementptr inbounds nuw %struct._address, ptr %18, i32 0, i32 0
  store i32 2, ptr %104, align 8
  %105 = getelementptr inbounds nuw %struct._address, ptr %18, i32 0, i32 1
  store i32 4, ptr %105, align 4
  %106 = getelementptr inbounds [4 x i8], ptr %17, i64 0, i64 0
  %107 = getelementptr inbounds nuw %struct._address, ptr %18, i32 0, i32 2
  store ptr %106, ptr %107, align 8
  %108 = load ptr, ptr %7, align 8
  %109 = load i32, ptr %16, align 4
  %110 = load i32, ptr %14, align 4
  call void @msmms_data_add_address(ptr noundef %108, ptr noundef %18, i32 noundef %109, i32 noundef %110)
  call void @llvm.lifetime.end.p0(i64 24, ptr %18) #7
  call void @llvm.lifetime.end.p0(i64 4, ptr %17) #7
  br label %111

111:                                              ; preds = %87, %84
  call void @llvm.lifetime.end.p0(i64 4, ptr %16) #7
  br label %112

112:                                              ; preds = %111, %5
  call void @llvm.lifetime.end.p0(i64 4, ptr %15) #7
  call void @llvm.lifetime.end.p0(i64 4, ptr %14) #7
  call void @llvm.lifetime.end.p0(i64 4, ptr %13) #7
  call void @llvm.lifetime.end.p0(i64 16, ptr %12) #7
  call void @llvm.lifetime.end.p0(i64 8, ptr %11) #7
  ret void
}