; Function Attrs: null_pointer_is_valid sspstrong uwtable
define internal fastcc void @dissect_client_transport_info(ptr noundef %0, ptr noundef readonly captures(none) %1, ptr noundef %2, i32 noundef %3) unnamed_addr #0 {
  %5 = alloca %struct._address, align 8
  %6 = alloca [4 x i32], align 16
  %7 = alloca [4 x i8], align 4
  %8 = alloca i32, align 4
  %9 = alloca [4 x i8], align 1
  %10 = alloca %struct._address, align 8
  call void @llvm.lifetime.start.p0(i64 16, ptr nonnull %6) #6
  call void @llvm.lifetime.start.p0(i64 4, ptr nonnull %7) #6
  store i32 0, ptr %7, align 4
  call void @llvm.lifetime.start.p0(i64 4, ptr nonnull %8) #6
  %11 = load i32, ptr @hf_msmms_command_prefix1, align 4
  %12 = tail call ptr @proto_tree_add_item(ptr noundef %2, i32 noundef %11, ptr noundef %0, i32 noundef 40, i32 noundef 4, i32 noundef -2147483648)
  %13 = load i32, ptr @hf_msmms_command_prefix2, align 4
  %14 = tail call ptr @proto_tree_add_item(ptr noundef %2, i32 noundef %13, ptr noundef %0, i32 noundef 44, i32 noundef 4, i32 noundef -2147483648)
  %15 = getelementptr inbounds nuw i8, ptr %1, i64 408
  %16 = load ptr, ptr %15, align 8
  %17 = add i32 %3, -20
  %18 = tail call ptr @tvb_get_string_enc(ptr noundef %16, ptr noundef %0, i32 noundef 60, i32 noundef %17, i32 noundef -2147483644)
  %19 = load i32, ptr @hf_msmms_command_client_transport_info, align 4
  %20 = tail call ptr (ptr, i32, ptr, i32, i32, ptr, ptr, ...) @proto_tree_add_string_format(ptr noundef %2, i32 noundef %19, ptr noundef %0, i32 noundef 60, i32 noundef %17, ptr noundef %18, ptr noundef nonnull @.str.187, ptr noundef %18)
  %21 = getelementptr inbounds nuw i8, ptr %1, i64 8
  %22 = load ptr, ptr %21, align 8
  %23 = load ptr, ptr %15, align 8
  %24 = tail call ptr @format_text_string(ptr noundef %23, ptr noundef %18)
  tail call void (ptr, i32, ptr, ...) @col_append_fstr(ptr noundef %22, i32 noundef 25, ptr noundef nonnull @.str.188, ptr noundef %24)
  %25 = getelementptr inbounds nuw i8, ptr %6, i64 4
  %26 = getelementptr inbounds nuw i8, ptr %6, i64 8
  %27 = getelementptr inbounds nuw i8, ptr %6, i64 12
  %28 = call i32 (ptr, ptr, ...) @__isoc99_sscanf(ptr noundef %18, ptr noundef nonnull @.str.189, ptr noundef nonnull %6, ptr noundef nonnull %25, ptr noundef nonnull %26, ptr noundef nonnull %27, ptr noundef nonnull %7, ptr noundef nonnull %8) #6
  %29 = icmp eq i32 %28, 6
  br i1 %29, label %30, label %61

30:                                               ; preds = %4
  %bcmp = call i32 @bcmp(ptr noundef nonnull dereferenceable(3) %7, ptr noundef nonnull dereferenceable(3) @.str.190, i64 3)
  %31 = icmp eq i32 %bcmp, 0
  br i1 %31, label %.thread, label %32

32:                                               ; preds = %30
  %bcmp28 = call i32 @bcmp(ptr noundef nonnull dereferenceable(3) %7, ptr noundef nonnull dereferenceable(3) @.str.191, i64 3)
  %.not = icmp eq i32 %bcmp28, 0
  br i1 %.not, label %.thread, label %61

.thread:                                          ; preds = %30, %32
  %.032 = phi i32 [ 2, %32 ], [ 3, %30 ]
  call void @llvm.lifetime.start.p0(i64 4, ptr nonnull %9) #6
  call void @llvm.lifetime.start.p0(i64 24, ptr nonnull %10) #6
  %33 = load i32, ptr %6, align 16
  %34 = trunc i32 %33 to i8
  store i8 %34, ptr %9, align 1
  %35 = load i32, ptr %25, align 4
  %36 = trunc i32 %35 to i8
  %37 = getelementptr inbounds nuw i8, ptr %9, i64 1
  store i8 %36, ptr %37, align 1
  %38 = load i32, ptr %26, align 8
  %39 = trunc i32 %38 to i8
  %40 = getelementptr inbounds nuw i8, ptr %9, i64 2
  store i8 %39, ptr %40, align 1
  %41 = load i32, ptr %27, align 4
  %42 = trunc i32 %41 to i8
  %43 = getelementptr inbounds nuw i8, ptr %9, i64 3
  store i8 %42, ptr %43, align 1
  store i32 2, ptr %10, align 8
  %44 = getelementptr inbounds nuw i8, ptr %10, i64 4
  store i32 4, ptr %44, align 4
  %45 = getelementptr inbounds nuw i8, ptr %10, i64 8
  store ptr %9, ptr %45, align 8
  %46 = load i32, ptr %8, align 4
  call void @llvm.lifetime.start.p0(i64 24, ptr nonnull %5) #6
  %47 = getelementptr inbounds nuw i8, ptr %1, i64 80
  %48 = load ptr, ptr %47, align 8
  %49 = getelementptr inbounds nuw i8, ptr %48, i64 57
  %50 = load i16, ptr %49, align 1
  %51 = and i16 %50, 8
  %.not.i = icmp eq i16 %51, 0
  br i1 %.not.i, label %52, label %msmms_data_add_address.exit

52:                                               ; preds = %.thread
  call void @llvm.memset.p0.i64(ptr noundef nonnull align 8 dereferenceable(24) %5, i8 0, i64 24, i1 false)
  %53 = getelementptr inbounds nuw i8, ptr %1, i64 20
  %54 = load i32, ptr %53, align 4
  %55 = call ptr @find_conversation(i32 noundef %54, ptr noundef nonnull %10, ptr noundef nonnull %5, i32 noundef range(i32 1, 4) %.032, i32 noundef %46, i32 noundef 0, i32 noundef 196608)
  %.not11.i = icmp eq ptr %55, null
  br i1 %.not11.i, label %56, label %59

56:                                               ; preds = %52
  %57 = load i32, ptr %53, align 4
  %58 = call ptr @conversation_new(i32 noundef %57, ptr noundef nonnull %10, ptr noundef nonnull %5, i32 noundef range(i32 1, 4) %.032, i32 noundef %46, i32 noundef 0, i32 noundef 3)
  br label %59

59:                                               ; preds = %56, %52
  %.0.i = phi ptr [ %55, %52 ], [ %58, %56 ]
  %60 = load ptr, ptr @msmms_handle, align 8
  call void @conversation_set_dissector(ptr noundef %.0.i, ptr noundef %60)
  br label %msmms_data_add_address.exit

msmms_data_add_address.exit:                      ; preds = %.thread, %59
  call void @llvm.lifetime.end.p0(i64 24, ptr nonnull %5) #6
  call void @llvm.lifetime.end.p0(i64 24, ptr nonnull %10) #6
  call void @llvm.lifetime.end.p0(i64 4, ptr nonnull %9) #6
  br label %61

61:                                               ; preds = %32, %msmms_data_add_address.exit, %4
  call void @llvm.lifetime.end.p0(i64 4, ptr nonnull %8) #6
  call void @llvm.lifetime.end.p0(i64 4, ptr nonnull %7) #6
  call void @llvm.lifetime.end.p0(i64 16, ptr nonnull %6) #6
  ret void
}